target datalayout = "e-m:e-p270:32:32-p271:32:32-p272:64:64-i64:64-i128:128-f80:128-n8:16:32:64-S128"
target triple = "x86_64-pc-linux-gnu"

%struct.SDL_Gamepad = type { ptr, i32, ptr, i32, i32, ptr, i32, ptr, ptr, ptr, i64, ptr }
%struct.MappingChangeTracker = type { i32, ptr, ptr, i32, ptr }

@SDL_gamepads = internal global ptr null, align 8
@s_mappingChangeTracker = internal global ptr null, align 8

; Function Attrs: nounwind uwtable
define internal void @AddMappingChangeTracking(ptr noundef %0) #0 {
  %2 = alloca ptr, align 8
  %3 = alloca ptr, align 8
  %4 = alloca i32, align 4
  %5 = alloca ptr, align 8
  store ptr %0, ptr %2, align 8
  call void @llvm.lifetime.start.p0(i64 8, ptr %3) #8
  call void @llvm.lifetime.start.p0(i64 4, ptr %4) #8
  call void @llvm.lifetime.start.p0(i64 8, ptr %5) #8
  call void @SDL_AssertJoysticksLocked()
  br label %6

6:                                                ; preds = %1
  br label %7

7:                                                ; preds = %6
  br label %8

8:                                                ; preds = %7
  %9 = load ptr, ptr @s_mappingChangeTracker, align 8
  store ptr %9, ptr %3, align 8
  %10 = load ptr, ptr %3, align 8
  %11 = getelementptr inbounds nuw %struct.MappingChangeTracker, ptr %10, i32 0, i32 3
  %12 = load i32, ptr %11, align 8
  store i32 %12, ptr %4, align 4
  %13 = load ptr, ptr %3, align 8
  %14 = getelementptr inbounds nuw %struct.MappingChangeTracker, ptr %13, i32 0, i32 4
  %15 = load ptr, ptr %14, align 8
  %16 = load i32, ptr %4, align 4
  %17 = add nsw i32 %16, 1
  %18 = sext i32 %17 to i64
  %19 = mul i64 %18, 8
  %20 = call ptr @SDL_realloc_REAL(ptr noundef %15, i64 noundef %19) #10
  store ptr %20, ptr %5, align 8
  %21 = load ptr, ptr %5, align 8
  %22 = icmp ne ptr %21, null
  br i1 %22, label %23, label %38

23:                                               ; preds = %8
  %24 = load ptr, ptr %5, align 8
  %25 = load ptr, ptr %3, align 8
  %26 = getelementptr inbounds nuw %struct.MappingChangeTracker, ptr %25, i32 0, i32 4
  store ptr %24, ptr %26, align 8
  %27 = load ptr, ptr %2, align 8
  %28 = load ptr, ptr %3, align 8
  %29 = getelementptr inbounds nuw %struct.MappingChangeTracker, ptr %28, i32 0, i32 4
  %30 = load ptr, ptr %29, align 8
  %31 = load i32, ptr %4, align 4
  %32 = sext i32 %31 to i64
  %33 = getelementptr inbounds ptr, ptr %30, i64 %32
  store ptr %27, ptr %33, align 8
  %34 = load i32, ptr %4, align 4
  %35 = add nsw i32 %34, 1
  %36 = load ptr, ptr %3, align 8
  %37 = getelementptr inbounds nuw %struct.MappingChangeTracker, ptr %36, i32 0, i32 3
  store i32 %35, ptr %37, align 8
  br label %38

38:                                               ; preds = %23, %8
  call void @llvm.lifetime.end.p0(i64 8, ptr %5) #8
  call void @llvm.lifetime.end.p0(i64 4, ptr %4) #8
  call void @llvm.lifetime.end.p0(i64 8, ptr %3) #8
  ret void
}

; Function Attrs: nounwind uwtable
define hidden zeroext i1 @SDL_ReloadGamepadMappings_REAL() #0 {
  %1 = alloca ptr, align 8
  call void @llvm.lifetime.start.p0(i64 8, ptr %1) #8
  call void @SDL_LockJoysticks_REAL()
  call void @PushMappingChangeTracking()
  %2 = load ptr, ptr @SDL_gamepads, align 8
  store ptr %2, ptr %1, align 8
  br label %3

3:                                                ; preds = %10, %0
  %4 = load ptr, ptr %1, align 8
  %5 = icmp ne ptr %4, null
  br i1 %5, label %6, label %14

6:                                                ; preds = %3
  %7 = load ptr, ptr %1, align 8
  %8 = getelementptr inbounds nuw %struct.SDL_Gamepad, ptr %7, i32 0, i32 5
  %9 = load ptr, ptr %8, align 8
  call void @AddMappingChangeTracking(ptr noundef %9)
  br label %10

10:                                               ; preds = %6
  %11 = load ptr, ptr %1, align 8
  %12 = getelementptr inbounds nuw %struct.SDL_Gamepad, ptr %11, i32 0, i32 11
  %13 = load ptr, ptr %12, align 8
  store ptr %13, ptr %1, align 8
  br label %3, !llvm.loop !18

14:                                               ; preds = %3
  call void @SDL_QuitGamepadMappings()
  %15 = call zeroext i1 @SDL_InitGamepadMappings()
  call void @PopMappingChangeTracking()
  call void @SDL_UnlockJoysticks_REAL()
  call void @llvm.lifetime.end.p0(i64 8, ptr %1) #8
  ret i1 true
}