; Function Attrs: nounwind uwtable
define hidden noundef zeroext i1 @SDL_ReloadGamepadMappings_REAL() local_unnamed_addr #0 {
  tail call void @SDL_LockJoysticks_REAL() #10
  tail call fastcc void @PushMappingChangeTracking()
  %.03 = load ptr, ptr @SDL_gamepads, align 8
  %.not4 = icmp eq ptr %.03, null
  br i1 %.not4, label %._crit_edge, label %.lr.ph

.lr.ph:                                           ; preds = %0, %AddMappingChangeTracking.exit
  %.05 = phi ptr [ %.0, %AddMappingChangeTracking.exit ], [ %.03, %0 ]
  %1 = getelementptr inbounds nuw i8, ptr %.05, i64 32
  %2 = load ptr, ptr %1, align 8
  tail call void @SDL_AssertJoysticksLocked() #10
  %3 = load ptr, ptr @s_mappingChangeTracker, align 8
  %4 = getelementptr inbounds nuw i8, ptr %3, i64 24
  %5 = load i32, ptr %4, align 8
  %6 = getelementptr inbounds nuw i8, ptr %3, i64 32
  %7 = load ptr, ptr %6, align 8
  %8 = add nsw i32 %5, 1
  %9 = sext i32 %8 to i64
  %10 = shl nsw i64 %9, 3
  %11 = tail call ptr @SDL_realloc_REAL(ptr noundef %7, i64 noundef %10) #12
  %.not.i = icmp eq ptr %11, null
  br i1 %.not.i, label %AddMappingChangeTracking.exit, label %12

12:                                               ; preds = %.lr.ph
  store ptr %11, ptr %6, align 8
  %13 = sext i32 %5 to i64
  %14 = getelementptr inbounds ptr, ptr %11, i64 %13
  store ptr %2, ptr %14, align 8
  store i32 %8, ptr %4, align 8
  br label %AddMappingChangeTracking.exit

AddMappingChangeTracking.exit:                    ; preds = %.lr.ph, %12
  %15 = getelementptr inbounds nuw i8, ptr %.05, i64 80
  %.0 = load ptr, ptr %15, align 8
  %.not = icmp eq ptr %.0, null
  br i1 %.not, label %._crit_edge, label %.lr.ph, !llvm.loop !18

._crit_edge:                                      ; preds = %AddMappingChangeTracking.exit, %0
  tail call void @SDL_QuitGamepadMappings()
  %16 = tail call zeroext i1 @SDL_InitGamepadMappings()
  tail call fastcc void @PopMappingChangeTracking()
  tail call void @SDL_UnlockJoysticks_REAL() #10
  ret i1 true
}